# SymbolsHelper-Confirmed: 4:4.3.4 amd64 armel hppa i386 ia64 kfreebsd-amd64 kfreebsd-i386 mips mipsel powerpc s390 sparc
libkiten.so.4 libkiten4 #MINVER#
 _ZN14HistoryPtrList10setCurrentEi@Base 4:4.3.4
 _ZN14HistoryPtrList12toStringListEv@Base 4:4.3.4
 _ZN14HistoryPtrList16toStringListNextEv@Base 4:4.3.4
 _ZN14HistoryPtrList16toStringListPrevEv@Base 4:4.3.4
 _ZN14HistoryPtrList4nextEi@Base 4:4.3.4
 _ZN14HistoryPtrList4prevEi@Base 4:4.3.4
 _ZN14HistoryPtrList5countEv@Base 4:4.3.4
 _ZN14HistoryPtrList5indexEv@Base 4:4.3.4
 _ZN14HistoryPtrList7addItemEP9EntryList@Base 4:4.3.4
 _ZN14HistoryPtrList7currentEv@Base 4:4.3.4
 _ZN14HistoryPtrListC1Ev@Base 4:4.3.4
 _ZN14HistoryPtrListC2Ev@Base 4:4.3.4
 _ZN14HistoryPtrListD0Ev@Base 4:4.3.4
 _ZN14HistoryPtrListD1Ev@Base 4:4.3.4
 _ZN14HistoryPtrListD2Ev@Base 4:4.3.4
 _ZN17DictionaryManager12loadSettingsERK7KConfig@Base 4:4.3.4
 _ZN17DictionaryManager12makeDictFileERK7QString@Base 4:4.3.4
 _ZN17DictionaryManager13addDictionaryERK7QStringS2_S2_@Base 4:4.3.4
 _ZN17DictionaryManager16loadDictSettingsERK7QStringP15KConfigSkeleton@Base 4:4.3.4
 _ZN17DictionaryManager16removeDictionaryERK7QString@Base 4:4.3.4
 _ZN17DictionaryManager17listDictFileTypesEv@Base 4:4.3.4
 _ZN17DictionaryManager25generatePreferenceDialogsEP15KConfigSkeletonP7QWidget@Base 4:4.3.4
 _ZN17DictionaryManager26generateExtendedFieldsListEv@Base 4:4.3.4
 _ZN17DictionaryManagerC1Ev@Base 4:4.3.4
 _ZN17DictionaryManagerC2Ev@Base 4:4.3.4
 _ZN17DictionaryManagerD0Ev@Base 4:4.3.4
 _ZN17DictionaryManagerD1Ev@Base 4:4.3.4
 _ZN17DictionaryManagerD2Ev@Base 4:4.3.4
 _ZN26DictionaryPreferenceDialog11qt_metacallEN11QMetaObject4CallEiPPv@Base 4:4.3.4
 _ZN26DictionaryPreferenceDialog11qt_metacastEPKc@Base 4:4.3.4
 _ZN26DictionaryPreferenceDialog13widgetChangedEv@Base 4:4.3.4
 _ZN26DictionaryPreferenceDialog16staticMetaObjectE@Base 4:4.3.4
 _ZN26DictionaryPreferenceDialogC1EP7QWidgetRK7QString@Base 4:4.3.4
 _ZN26DictionaryPreferenceDialogC2EP7QWidgetRK7QString@Base 4:4.3.4
 _ZN26DictionaryPreferenceDialogD0Ev@Base 4:4.3.4
 _ZN26DictionaryPreferenceDialogD1Ev@Base 4:4.3.4
 _ZN26DictionaryPreferenceDialogD2Ev@Base 4:4.3.4
 _ZN5Entry4initEv@Base 4:4.3.4
 _ZN5EntryC1ERK7QString@Base 4:4.3.4
 _ZN5EntryC1ERK7QStringS2_RK11QStringListS5_@Base 4:4.3.4
 _ZN5EntryC1ERKS_@Base 4:4.3.4
 _ZN5EntryC1Ev@Base 4:4.3.4
 _ZN5EntryC2ERK7QString@Base 4:4.3.4
 _ZN5EntryC2ERK7QStringS2_RK11QStringListS5_@Base 4:4.3.4
 _ZN5EntryC2ERKS_@Base 4:4.3.4
 _ZN5EntryC2Ev@Base 4:4.3.4
 _ZN5EntryD0Ev@Base 4:4.3.4
 _ZN5EntryD1Ev@Base 4:4.3.4
 _ZN5EntryD2Ev@Base 4:4.3.4
 _ZN9DictQuery10setMeaningERK7QString@Base 4:4.3.4
 _ZN9DictQuery11setPropertyERK7QStringS2_@Base 4:4.3.4
 _ZN9DictQuery12setMatchTypeENS_9MatchTypeE@Base 4:4.3.4
 _ZN9DictQuery12takePropertyERK7QString@Base 4:4.3.4
 _ZN9DictQuery13charTypeCheckERK5QChar@Base 4:4.3.4
 _ZN9DictQuery13mainDelimiterE@Base 4:4.3.4
 _ZN9DictQuery14removePropertyERK7QString@Base 4:4.3.4
 _ZN9DictQuery15setDictionariesERK11QStringList@Base 4:4.3.4
 _ZN9DictQuery15stringTypeCheckERK7QString@Base 4:4.3.4
 _ZN9DictQuery16setPronunciationERK7QString@Base 4:4.3.4
 _ZN9DictQuery17propertySeperatorE@Base 4:4.3.4
 _ZN9DictQuery5clearEv@Base 4:4.3.4
 _ZN9DictQuery7Private10wordMarkerE@Base 4:4.3.4
 _ZN9DictQuery7Private13meaningMarkerE@Base 4:4.3.4
 _ZN9DictQuery7Private19pronunciationMarkerE@Base 4:4.3.4
 _ZN9DictQuery7setWordERK7QString@Base 4:4.3.4
 _ZN9DictQueryC1ERK7QString@Base 4:4.3.4
 _ZN9DictQueryC1ERKS_@Base 4:4.3.4
 _ZN9DictQueryC1Ev@Base 4:4.3.4
 _ZN9DictQueryC2ERK7QString@Base 4:4.3.4
 _ZN9DictQueryC2ERKS_@Base 4:4.3.4
 _ZN9DictQueryC2Ev@Base 4:4.3.4
 _ZN9DictQueryD1Ev@Base 4:4.3.4
 _ZN9DictQueryD2Ev@Base 4:4.3.4
 _ZN9DictQueryaSERK7QString@Base 4:4.3.4
 _ZN9DictQueryaSERKS_@Base 4:4.3.4
 _ZN9DictQueryixERK7QString@Base 4:4.3.4
 _ZN9DictQuerypLERKS_@Base 4:4.3.4
 _ZN9EntryList10appendListEPKS_@Base 4:4.3.4
 _ZN9EntryList14setScrollValueEi@Base 4:4.3.4
 _ZN9EntryList4sortER11QStringListS1_@Base 4:4.3.4
 _ZN9EntryList8setQueryERK9DictQuery@Base 4:4.3.4
 _ZN9EntryList9deleteAllEv@Base 4:4.3.4
 _ZN9EntryListC1ERKS_@Base 4:4.3.4
 _ZN9EntryListC1Ev@Base 4:4.3.4
 _ZN9EntryListC2ERKS_@Base 4:4.3.4
 _ZN9EntryListC2Ev@Base 4:4.3.4
 _ZN9EntryListD0Ev@Base 4:4.3.4
 _ZN9EntryListD1Ev@Base 4:4.3.4
 _ZN9EntryListD2Ev@Base 4:4.3.4
 _ZN9EntryListaSERKS_@Base 4:4.3.4
 _ZN9EntryListpLERKS_@Base 4:4.3.4
 _ZNK17DictionaryManager14doSearchInListERK9DictQueryPK9EntryList@Base 4:4.3.4
 _ZNK17DictionaryManager16listDictionariesEv@Base 4:4.3.4
 _ZNK17DictionaryManager18listDictionaryInfoERK7QString@Base 4:4.3.4
 _ZNK17DictionaryManager22listDictionariesOfTypeERK7QString@Base 4:4.3.4
 _ZNK17DictionaryManager8doSearchERK9DictQuery@Base 4:4.3.4
 _ZNK26DictionaryPreferenceDialog10metaObjectEv@Base 4:4.3.4
 _ZNK26DictionaryPreferenceDialog4nameEv@Base 4:4.3.4
 _ZNK5Entry11getDictNameEv@Base 4:4.3.4
 _ZNK5Entry11getMeaningsEv@Base 4:4.3.4
 _ZNK5Entry11getReadingsEv@Base 4:4.3.4
 _ZNK5Entry11sortByFieldERKS_RK7QString@Base 4:4.3.4
 _ZNK5Entry12HTMLMeaningsEv@Base 4:4.3.4
 _ZNK5Entry12HTMLReadingsEv@Base 4:4.3.4
 _ZNK5Entry12matchesQueryERK9DictQuery@Base 4:4.3.4
 _ZNK5Entry15getExtendedInfoEv@Base 4:4.3.4
 _ZNK5Entry15getMeaningsListEv@Base 4:4.3.4
 _ZNK5Entry15getReadingsListEv@Base 4:4.3.4
 _ZNK5Entry17extendedItemCheckERK7QStringS2_@Base 4:4.3.4
 _ZNK5Entry19getExtendedInfoItemERK7QString@Base 4:4.3.4
 _ZNK5Entry4sortERKS_RK11QStringListS4_@Base 4:4.3.4
 _ZNK5Entry6toHTMLEv@Base 4:4.3.4
 _ZNK5Entry7getWordEv@Base 4:4.3.4
 _ZNK5Entry7isKanjiERK5QChar@Base 4:4.3.4
 _ZNK5Entry7toKVTMLEv@Base 4:4.3.4
 _ZNK5Entry8HTMLWordEv@Base 4:4.3.4
 _ZNK5Entry8makeLinkERK7QString@Base 4:4.3.4
 _ZNK5Entry8toStringEv@Base 4:4.3.4
 _ZNK5Entry9listMatchERK11QStringListS2_N9DictQuery9MatchTypeE@Base 4:4.3.4
 _ZNK9DictQuery10getMeaningEv@Base 4:4.3.4
 _ZNK9DictQuery11getPropertyERK7QString@Base 4:4.3.4
 _ZNK9DictQuery11hasPropertyERK7QString@Base 4:4.3.4
 _ZNK9DictQuery12getMatchTypeEv@Base 4:4.3.4
 _ZNK9DictQuery15getDictionariesEv@Base 4:4.3.4
 _ZNK9DictQuery16getPronunciationEv@Base 4:4.3.4
 _ZNK9DictQuery16listPropertyKeysEv@Base 4:4.3.4
 _ZNK9DictQuery5cloneEv@Base 4:4.3.4
 _ZNK9DictQuery7getWordEv@Base 4:4.3.4
 _ZNK9DictQuery7isEmptyEv@Base 4:4.3.4
 _ZNK9DictQuery8toStringEv@Base 4:4.3.4
 _ZNK9DictQuerycv7QStringEv@Base 4:4.3.4
 _ZNK9DictQueryixERK7QString@Base 4:4.3.4
 _ZNK9EntryList11scrollValueEv@Base 4:4.3.4
 _ZNK9EntryList6toHTMLEjj@Base 4:4.3.4
 _ZNK9EntryList6toHTMLEv@Base 4:4.3.4
 _ZNK9EntryList7toKVTMLEjj@Base 4:4.3.4
 _ZNK9EntryList8getQueryEv@Base 4:4.3.4
 _ZNK9EntryList8toStringEjj@Base 4:4.3.4
 _ZNK9EntryList8toStringEv@Base 4:4.3.4
 _ZTI14HistoryPtrList@Base 4:4.3.4
 _ZTI17DictionaryManager@Base 4:4.3.4
 _ZTI26DictionaryPreferenceDialog@Base 4:4.3.4
 _ZTI5Entry@Base 4:4.3.4
 _ZTI9EntryList@Base 4:4.3.4
 _ZTS14HistoryPtrList@Base 4:4.3.4
 _ZTS17DictionaryManager@Base 4:4.3.4
 _ZTS26DictionaryPreferenceDialog@Base 4:4.3.4
 _ZTS5Entry@Base 4:4.3.4
 _ZTS9EntryList@Base 4:4.3.4
 _ZTV14HistoryPtrList@Base 4:4.3.4
 _ZTV17DictionaryManager@Base 4:4.3.4
 _ZTV26DictionaryPreferenceDialog@Base 4:4.3.4
 _ZTV5Entry@Base 4:4.3.4
 _ZTV9EntryList@Base 4:4.3.4
 _ZeqRK9DictQueryS1_@Base 4:4.3.4
 _ZltRK9DictQueryS1_@Base 4:4.3.4
 _ZneRK9DictQueryS1_@Base 4:4.3.4
 _ZplRK9DictQueryS1_@Base 4:4.3.4
 (c++)"non-virtual thunk to DictionaryPreferenceDialog::~DictionaryPreferenceDialog()@Base" 4:4.3.4
