# SymbolsHelper-Confirmed: 4:4.6.2 amd64
libkdeeduui.so.4 libkdeeduui4 #MINVER#
 _ZN12GlossaryItem11setPicturesERK7QString@Base 4:4.6.2
 _ZN12GlossaryItem6setRefERK11QStringList@Base 4:4.6.2
 _ZN12GlossaryItem7setDescERK7QString@Base 4:4.6.2
 _ZN12GlossaryItem7setNameERK7QString@Base 4:4.6.2
 _ZN14GlossaryDialog11addGlossaryEP8Glossaryb@Base 4:4.6.2
 _ZN14GlossaryDialog11qt_metacallEN11QMetaObject4CallEiPPv@Base 4:4.6.2
 _ZN14GlossaryDialog11qt_metacastEPKc@Base 4:4.6.2
 _ZN14GlossaryDialog13keyPressEventEP9QKeyEvent@Base 4:4.6.2
 _ZN14GlossaryDialog16staticMetaObjectE@Base 4:4.6.2
 _ZN14GlossaryDialog7Private11displayItemERK4KUrlRKN6KParts16OpenUrlArgumentsERKNS4_16BrowserArgumentsE@Base 4:4.6.2
 _ZN14GlossaryDialog7Private11rebuildTreeEv@Base 4:4.6.2
 _ZN14GlossaryDialog7Private13itemActivatedEP15QTreeWidgetItemi@Base 4:4.6.2
 _ZN14GlossaryDialogC1EP7QWidget@Base 4:4.6.2
 _ZN14GlossaryDialogC2EP7QWidget@Base 4:4.6.2
 _ZN14GlossaryDialogD0Ev@Base 4:4.6.2
 _ZN14GlossaryDialogD1Ev@Base 4:4.6.2
 _ZN14GlossaryDialogD2Ev@Base 4:4.6.2
 _ZN8Glossary10loadLayoutER12QDomDocumentRK4KUrl@Base 4:4.6.2
 _ZN8Glossary11setItemlistE5QListIP12GlossaryItemE@Base 4:4.6.2
 _ZN8Glossary12fixImagePathEv@Base 4:4.6.2
 _ZN8Glossary14setPicturePathERK7QString@Base 4:4.6.2
 _ZN8Glossary20setBackgroundPictureERK7QString@Base 4:4.6.2
 _ZN8Glossary4initERK4KUrlRK7QString@Base 4:4.6.2
 _ZN8Glossary5clearEv@Base 4:4.6.2
 _ZN8Glossary7addItemEP12GlossaryItem@Base 4:4.6.2
 _ZN8Glossary7setNameERK7QString@Base 4:4.6.2
 _ZN8Glossary9readItemsER12QDomDocument@Base 4:4.6.2
 _ZN8GlossaryC1ERK4KUrlRK7QString@Base 4:4.6.2
 _ZN8GlossaryC1Ev@Base 4:4.6.2
 _ZN8GlossaryC2ERK4KUrlRK7QString@Base 4:4.6.2
 _ZN8GlossaryC2Ev@Base 4:4.6.2
 _ZN8GlossaryD0Ev@Base 4:4.6.2
 _ZN8GlossaryD1Ev@Base 4:4.6.2
 _ZN8GlossaryD2Ev@Base 4:4.6.2
 _ZN9fontUtils8fontSizeER8QPainterRK7QStringiiNS_5FlagsE@Base 4:4.6.2
 _ZNK12GlossaryItem15parseReferencesEv@Base 4:4.6.2
 _ZNK12GlossaryItem3refEv@Base 4:4.6.2
 _ZNK12GlossaryItem4descEv@Base 4:4.6.2
 _ZNK12GlossaryItem4nameEv@Base 4:4.6.2
 _ZNK12GlossaryItem6toHtmlEv@Base 4:4.6.2
 _ZNK12GlossaryItem8picturesEv@Base 4:4.6.2
 _ZNK14GlossaryDialog10metaObjectEv@Base 4:4.6.2
 _ZNK14GlossaryDialog7Private10createItemERK12GlossaryInfo@Base 4:4.6.2
 _ZNK14GlossaryDialog7Private18findTreeWithLetterERK5QCharP15QTreeWidgetItem@Base 4:4.6.2
 _ZNK8Glossary11picturePathEv@Base 4:4.6.2
 _ZNK8Glossary17backgroundPictureEv@Base 4:4.6.2
 _ZNK8Glossary4nameEv@Base 4:4.6.2
 _ZNK8Glossary7isEmptyEv@Base 4:4.6.2
 _ZNK8Glossary8itemlistEv@Base 4:4.6.2
 _ZTI14GlossaryDialog@Base 4:4.6.2
 _ZTI8Glossary@Base 4:4.6.2
 _ZTS14GlossaryDialog@Base 4:4.6.2
 _ZTS8Glossary@Base 4:4.6.2
 _ZTV14GlossaryDialog@Base 4:4.6.2
 _ZTV8Glossary@Base 4:4.6.2
 (c++)"non-virtual thunk to GlossaryDialog::~GlossaryDialog()@Base" 4:4.6.2
