# SymbolsHelper-Confirmed: 4:4.6.2 amd64
libkeduvocdocument.so.4 libkeduvocdocument4 #MINVER#
 _ZN11KEduVocText10fromKVTML2ER11QDomElement@Base 4:4.6.2
 _ZN11KEduVocText11incBadCountEv@Base 4:4.6.2
 _ZN11KEduVocText11resetGradesEv@Base 4:4.6.2
 _ZN11KEduVocText11setBadCountEt@Base 4:4.6.2
 _ZN11KEduVocText15setPracticeDateERK9QDateTime@Base 4:4.6.2
 _ZN11KEduVocText16incPracticeCountEv@Base 4:4.6.2
 _ZN11KEduVocText16setPracticeCountEt@Base 4:4.6.2
 _ZN11KEduVocText7isEmptyEv@Base 4:4.6.2
 _ZN11KEduVocText7setTextERK7QString@Base 4:4.6.2
 _ZN11KEduVocText8decGradeEv@Base 4:4.6.2
 _ZN11KEduVocText8incGradeEv@Base 4:4.6.2
 _ZN11KEduVocText8setGradeEt@Base 4:4.6.2
 _ZN11KEduVocText8toKVTML2ER11QDomElement@Base 4:4.6.2
 _ZN11KEduVocTextC1ERK7QString@Base 4:4.6.2
 _ZN11KEduVocTextC1ERKS_@Base 4:4.6.2
 _ZN11KEduVocTextC2ERK7QString@Base 4:4.6.2
 _ZN11KEduVocTextC2ERKS_@Base 4:4.6.2
 _ZN11KEduVocTextD1Ev@Base 4:4.6.2
 _ZN11KEduVocTextD2Ev@Base 4:4.6.2
 _ZN11KEduVocTextaSERKS_@Base 4:4.6.2
 _ZN13KEduVocLesson10entryCountEN16KEduVocContainer20EnumEntriesRecursiveE@Base 4:4.6.2
 _ZN13KEduVocLesson11appendEntryEP17KEduVocExpression@Base 4:4.6.2
 _ZN13KEduVocLesson11insertEntryEiP17KEduVocExpression@Base 4:4.6.2
 _ZN13KEduVocLesson11removeEntryEP17KEduVocExpression@Base 4:4.6.2
 _ZN13KEduVocLesson5entryEiN16KEduVocContainer20EnumEntriesRecursiveE@Base 4:4.6.2
 _ZN13KEduVocLesson7entriesEN16KEduVocContainer20EnumEntriesRecursiveE@Base 4:4.6.2
 _ZN13KEduVocLessonC1ERK7QStringP16KEduVocContainer@Base 4:4.6.2
 _ZN13KEduVocLessonC1ERKS_@Base 4:4.6.2
 _ZN13KEduVocLessonC2ERK7QStringP16KEduVocContainer@Base 4:4.6.2
 _ZN13KEduVocLessonC2ERKS_@Base 4:4.6.2
 _ZN13KEduVocLessonD0Ev@Base 4:4.6.2
 _ZN13KEduVocLessonD1Ev@Base 4:4.6.2
 _ZN13KEduVocLessonD2Ev@Base 4:4.6.2
 _ZN14KEduVocArticle10setArticleERK7QStringRK6QFlagsIN15KEduVocWordFlag5FlagsEE@Base 4:4.6.2
 _ZN14KEduVocArticle7articleERK6QFlagsIN15KEduVocWordFlag5FlagsEE@Base 4:4.6.2
 _ZN14KEduVocArticle7isEmptyEv@Base 4:4.6.2
 _ZN14KEduVocArticleC1ERK7QStringS2_S2_S2_S2_S2_@Base 4:4.6.2
 _ZN14KEduVocArticleC1ERKS_@Base 4:4.6.2
 _ZN14KEduVocArticleC1Ev@Base 4:4.6.2
 _ZN14KEduVocArticleC2ERK7QStringS2_S2_S2_S2_S2_@Base 4:4.6.2
 _ZN14KEduVocArticleC2ERKS_@Base 4:4.6.2
 _ZN14KEduVocArticleC2Ev@Base 4:4.6.2
 _ZN14KEduVocArticleD1Ev@Base 4:4.6.2
 _ZN14KEduVocArticleD2Ev@Base 4:4.6.2
 _ZN14KEduVocArticleaSERKS_@Base 4:4.6.2
 _ZN15KEduVocDocument10identifierEi@Base 4:4.6.2
 _ZN15KEduVocDocument10setLicenseERK7QString@Base 4:4.6.2
 _ZN15KEduVocDocument10setVersionERK7QString@Base 4:4.6.2
 _ZN15KEduVocDocument11docModifiedEb@Base 4:4.6.2
 _ZN15KEduVocDocument11qt_metacallEN11QMetaObject4CallEiPPv@Base 4:4.6.2
 _ZN15KEduVocDocument11qt_metacastEPKc@Base 4:4.6.2
 _ZN15KEduVocDocument11setCategoryERK7QString@Base 4:4.6.2
 _ZN15KEduVocDocument11setModifiedEb@Base 4:4.6.2
 _ZN15KEduVocDocument11toByteArrayERK7QString@Base 4:4.6.2
 _ZN15KEduVocDocument12setGeneratorERK7QString@Base 4:4.6.2
 _ZN15KEduVocDocument13setIdentifierEiRK17KEduVocIdentifier@Base 4:4.6.2
 _ZN15KEduVocDocument14detectFileTypeERK7QString@Base 4:4.6.2
 _ZN15KEduVocDocument15progressChangedEPS_i@Base 4:4.6.2
 _ZN15KEduVocDocument15setCsvDelimiterERK7QString@Base 4:4.6.2
 _ZN15KEduVocDocument16appendIdentifierERK17KEduVocIdentifier@Base 4:4.6.2
 _ZN15KEduVocDocument16errorDescriptionEi@Base 4:4.6.2
 _ZN15KEduVocDocument16leitnerContainerEv@Base 4:4.6.2
 _ZN15KEduVocDocument16removeIdentifierEi@Base 4:4.6.2
 _ZN15KEduVocDocument16setAuthorContactERK7QString@Base 4:4.6.2
 _ZN15KEduVocDocument16staticMetaObjectE@Base 4:4.6.2
 _ZN15KEduVocDocument17wordTypeContainerEv@Base 4:4.6.2
 _ZN15KEduVocDocument18setDocumentCommentERK7QString@Base 4:4.6.2
 _ZN15KEduVocDocument18setQueryIdentifierERK7QStringS2_@Base 4:4.6.2
 _ZN15KEduVocDocument22KEduVocDocumentPrivate4initEv@Base 4:4.6.2
 _ZN15KEduVocDocument22KEduVocDocumentPrivateD1Ev@Base 4:4.6.2
 _ZN15KEduVocDocument22KEduVocDocumentPrivateD2Ev@Base 4:4.6.2
 _ZN15KEduVocDocument4openERK4KUrl@Base 4:4.6.2
 _ZN15KEduVocDocument5mergeEPS_b@Base 4:4.6.2
 _ZN15KEduVocDocument6lessonEv@Base 4:4.6.2
 _ZN15KEduVocDocument6saveAsERK4KUrlNS_8FileTypeERK7QString@Base 4:4.6.2
 _ZN15KEduVocDocument6setUrlERK4KUrl@Base 4:4.6.2
 _ZN15KEduVocDocument7patternENS_14FileDialogModeE@Base 4:4.6.2
 _ZN15KEduVocDocument8setTitleERK7QString@Base 4:4.6.2
 _ZN15KEduVocDocument9setAuthorERK7QString@Base 4:4.6.2
 _ZN15KEduVocDocumentC1EP7QObject@Base 4:4.6.2
 _ZN15KEduVocDocumentC2EP7QObject@Base 4:4.6.2
 _ZN15KEduVocDocumentD0Ev@Base 4:4.6.2
 _ZN15KEduVocDocumentD1Ev@Base 4:4.6.2
 _ZN15KEduVocDocumentD2Ev@Base 4:4.6.2
 _ZN15KEduVocWordType10entryCountEN16KEduVocContainer20EnumEntriesRecursiveE@Base 4:4.6.2
 _ZN15KEduVocWordType11childOfTypeERK6QFlagsIN15KEduVocWordFlag5FlagsEE@Base 4:4.6.2
 _ZN15KEduVocWordType11setWordTypeE6QFlagsIN15KEduVocWordFlag5FlagsEE@Base 4:4.6.2
 _ZN15KEduVocWordType11translationEi@Base 4:4.6.2
 _ZN15KEduVocWordType14addTranslationEP18KEduVocTranslation@Base 4:4.6.2
 _ZN15KEduVocWordType17removeTranslationEP18KEduVocTranslation@Base 4:4.6.2
 _ZN15KEduVocWordType5entryEiN16KEduVocContainer20EnumEntriesRecursiveE@Base 4:4.6.2
 _ZN15KEduVocWordType7entriesEN16KEduVocContainer20EnumEntriesRecursiveE@Base 4:4.6.2
 _ZN15KEduVocWordTypeC1ERK7QStringPS_@Base 4:4.6.2
 _ZN15KEduVocWordTypeC2ERK7QStringPS_@Base 4:4.6.2
 _ZN15KEduVocWordTypeD0Ev@Base 4:4.6.2
 _ZN15KEduVocWordTypeD1Ev@Base 4:4.6.2
 _ZN15KEduVocWordTypeD2Ev@Base 4:4.6.2
 _ZN16KEduVocContainer10inPracticeEv@Base 4:4.6.2
 _ZN16KEduVocContainer11resetGradesEiNS_20EnumEntriesRecursiveE@Base 4:4.6.2
 _ZN16KEduVocContainer11setImageUrlERK4KUrl@Base 4:4.6.2
 _ZN16KEduVocContainer12averageGradeEiNS_20EnumEntriesRecursiveE@Base 4:4.6.2
 _ZN16KEduVocContainer13containerTypeEv@Base 4:4.6.2
 _ZN16KEduVocContainer13setInPracticeEb@Base 4:4.6.2
 _ZN16KEduVocContainer14childContainerERK7QString@Base 4:4.6.2
 _ZN16KEduVocContainer14childContainerEi@Base 4:4.6.2
 _ZN16KEduVocContainer15childContainersEv@Base 4:4.6.2
 _ZN16KEduVocContainer16entriesRecursiveEv@Base 4:4.6.2
 _ZN16KEduVocContainer16setContainerTypeENS_17EnumContainerTypeE@Base 4:4.6.2
 _ZN16KEduVocContainer17removeTranslationEi@Base 4:4.6.2
 _ZN16KEduVocContainer18expressionsOfGradeEitNS_20EnumEntriesRecursiveE@Base 4:4.6.2
 _ZN16KEduVocContainer20appendChildContainerEPS_@Base 4:4.6.2
 _ZN16KEduVocContainer20deleteChildContainerEi@Base 4:4.6.2
 _ZN16KEduVocContainer20insertChildContainerEiPS_@Base 4:4.6.2
 _ZN16KEduVocContainer20removeChildContainerEi@Base 4:4.6.2
 _ZN16KEduVocContainer24updateChildLessonEntriesEv@Base 4:4.6.2
 _ZN16KEduVocContainer28invalidateChildLessonEntriesEv@Base 4:4.6.2
 _ZN16KEduVocContainer4nameEv@Base 4:4.6.2
 _ZN16KEduVocContainer6parentEv@Base 4:4.6.2
 _ZN16KEduVocContainer7PrivateD1Ev@Base 4:4.6.2
 _ZN16KEduVocContainer7PrivateD2Ev@Base 4:4.6.2
 _ZN16KEduVocContainer7setNameERK7QString@Base 4:4.6.2
 _ZN16KEduVocContainer8imageUrlEv@Base 4:4.6.2
 _ZN16KEduVocContainerC1ERK7QStringNS_17EnumContainerTypeEPS_@Base 4:4.6.2
 _ZN16KEduVocContainerC1ERKS_@Base 4:4.6.2
 _ZN16KEduVocContainerC2ERK7QStringNS_17EnumContainerTypeEPS_@Base 4:4.6.2
 _ZN16KEduVocContainerC2ERKS_@Base 4:4.6.2
 _ZN16KEduVocContainerD0Ev@Base 4:4.6.2
 _ZN16KEduVocContainerD1Ev@Base 4:4.6.2
 _ZN16KEduVocContainerD2Ev@Base 4:4.6.2
 _ZN16KEduVocContaineraSERKS_@Base 4:4.6.2
 _ZN16KEduVocContainereqERKS_@Base 4:4.6.2
 _ZN16SharedKvtmlFiles19sortDownloadedFilesEv@Base 4:4.6.2
 _ZN16SharedKvtmlFiles6rescanEv@Base 4:4.6.2
 _ZN16SharedKvtmlFiles6titlesERK7QString@Base 4:4.6.2
 _ZN16SharedKvtmlFiles8commentsERK7QString@Base 4:4.6.2
 _ZN16SharedKvtmlFiles9fileNamesERK7QString@Base 4:4.6.2
 _ZN16SharedKvtmlFiles9languagesEv@Base 4:4.6.2
 _ZN17KEduVocDeclension10declensionE6QFlagsIN15KEduVocWordFlag5FlagsEE@Base 4:4.6.2
 _ZN17KEduVocDeclension10fromKVTML2ER11QDomElement@Base 4:4.6.2
 _ZN17KEduVocDeclension13setDeclensionERK11KEduVocText6QFlagsIN15KEduVocWordFlag5FlagsEE@Base 4:4.6.2
 _ZN17KEduVocDeclension7isEmptyEv@Base 4:4.6.2
 _ZN17KEduVocDeclension8toKVTML2ER11QDomElement@Base 4:4.6.2
 _ZN17KEduVocDeclensionC1ERKS_@Base 4:4.6.2
 _ZN17KEduVocDeclensionC1Ev@Base 4:4.6.2
 _ZN17KEduVocDeclensionC2ERKS_@Base 4:4.6.2
 _ZN17KEduVocDeclensionC2Ev@Base 4:4.6.2
 _ZN17KEduVocDeclensionD1Ev@Base 4:4.6.2
 _ZN17KEduVocDeclensionD2Ev@Base 4:4.6.2
 _ZN17KEduVocDeclensionaSERKS_@Base 4:4.6.2
 _ZN17KEduVocExpression11resetGradesEi@Base 4:4.6.2
 _ZN17KEduVocExpression11translationEi@Base 4:4.6.2
 _ZN17KEduVocExpression14setTranslationEiRK7QString@Base 4:4.6.2
 _ZN17KEduVocExpression17removeTranslationEi@Base 4:4.6.2
 _ZN17KEduVocExpression24KEduVocExpressionPrivateC1ERKS0_@Base 4:4.6.2
 _ZN17KEduVocExpression24KEduVocExpressionPrivateC2ERKS0_@Base 4:4.6.2
 _ZN17KEduVocExpression24KEduVocExpressionPrivateD1Ev@Base 4:4.6.2
 _ZN17KEduVocExpression24KEduVocExpressionPrivateD2Ev@Base 4:4.6.2
 _ZN17KEduVocExpression24KEduVocExpressionPrivateaSERKS0_@Base 4:4.6.2
 _ZN17KEduVocExpression9setActiveEb@Base 4:4.6.2
 _ZN17KEduVocExpression9setLessonEP13KEduVocLesson@Base 4:4.6.2
 _ZN17KEduVocExpressionC1ERK11QStringList@Base 4:4.6.2
 _ZN17KEduVocExpressionC1ERK7QString@Base 4:4.6.2
 _ZN17KEduVocExpressionC1ERKS_@Base 4:4.6.2
 _ZN17KEduVocExpressionC1Ev@Base 4:4.6.2
 _ZN17KEduVocExpressionC2ERK11QStringList@Base 4:4.6.2
 _ZN17KEduVocExpressionC2ERK7QString@Base 4:4.6.2
 _ZN17KEduVocExpressionC2ERKS_@Base 4:4.6.2
 _ZN17KEduVocExpressionC2Ev@Base 4:4.6.2
 _ZN17KEduVocExpressionD1Ev@Base 4:4.6.2
 _ZN17KEduVocExpressionD2Ev@Base 4:4.6.2
 _ZN17KEduVocExpressionaSERKS_@Base 4:4.6.2
 _ZN17KEduVocIdentifier10setArticleERK14KEduVocArticle@Base 4:4.6.2
 _ZN17KEduVocIdentifier12setTenseListERK11QStringList@Base 4:4.6.2
 _ZN17KEduVocIdentifier19setPersonalPronounsERK22KEduVocPersonalPronoun@Base 4:4.6.2
 _ZN17KEduVocIdentifier7setNameERK7QString@Base 4:4.6.2
 _ZN17KEduVocIdentifier8setTenseEiRK7QString@Base 4:4.6.2
 _ZN17KEduVocIdentifier9setLocaleERK7QString@Base 4:4.6.2
 _ZN17KEduVocIdentifierC1ERKS_@Base 4:4.6.2
 _ZN17KEduVocIdentifierC1Ev@Base 4:4.6.2
 _ZN17KEduVocIdentifierC2ERKS_@Base 4:4.6.2
 _ZN17KEduVocIdentifierC2Ev@Base 4:4.6.2
 _ZN17KEduVocIdentifierD1Ev@Base 4:4.6.2
 _ZN17KEduVocIdentifierD2Ev@Base 4:4.6.2
 _ZN17KEduVocIdentifieraSERKS_@Base 4:4.6.2
 _ZN17KEduVocLeitnerBox10entryCountEN16KEduVocContainer20EnumEntriesRecursiveE@Base 4:4.6.2
 _ZN17KEduVocLeitnerBox11translationEi@Base 4:4.6.2
 _ZN17KEduVocLeitnerBox14addTranslationEP18KEduVocTranslation@Base 4:4.6.2
 _ZN17KEduVocLeitnerBox17removeTranslationEP18KEduVocTranslation@Base 4:4.6.2
 _ZN17KEduVocLeitnerBox5entryEiN16KEduVocContainer20EnumEntriesRecursiveE@Base 4:4.6.2
 _ZN17KEduVocLeitnerBox7entriesEN16KEduVocContainer20EnumEntriesRecursiveE@Base 4:4.6.2
 _ZN17KEduVocLeitnerBoxC1ERK7QStringPS_@Base 4:4.6.2
 _ZN17KEduVocLeitnerBoxC2ERK7QStringPS_@Base 4:4.6.2
 _ZN17KEduVocLeitnerBoxD0Ev@Base 4:4.6.2
 _ZN17KEduVocLeitnerBoxD1Ev@Base 4:4.6.2
 _ZN17KEduVocLeitnerBoxD2Ev@Base 4:4.6.2
 _ZN18KEduVocConjugation10fromKVTML2ER11QDomElement@Base 4:4.6.2
 _ZN18KEduVocConjugation14setConjugationERK11KEduVocText6QFlagsIN15KEduVocWordFlag5FlagsEE@Base 4:4.6.2
 _ZN18KEduVocConjugation4keysEv@Base 4:4.6.2
 _ZN18KEduVocConjugation7isEmptyEv@Base 4:4.6.2
 _ZN18KEduVocConjugation8toKVTML2ER11QDomElementRK7QString@Base 4:4.6.2
 _ZN18KEduVocConjugationC1ERKS_@Base 4:4.6.2
 _ZN18KEduVocConjugationC1Ev@Base 4:4.6.2
 _ZN18KEduVocConjugationC2ERKS_@Base 4:4.6.2
 _ZN18KEduVocConjugationC2Ev@Base 4:4.6.2
 _ZN18KEduVocConjugationD1Ev@Base 4:4.6.2
 _ZN18KEduVocConjugationD2Ev@Base 4:4.6.2
 _ZN18KEduVocConjugationaSERKS_@Base 4:4.6.2
 _ZN18KEduVocTranslation10addAntonymEPS_@Base 4:4.6.2
 _ZN18KEduVocTranslation10addSynonymEPS_@Base 4:4.6.2
 _ZN18KEduVocTranslation10declensionEv@Base 4:4.6.2
 _ZN18KEduVocTranslation10fromKVTML2ER11QDomElement@Base 4:4.6.2
 _ZN18KEduVocTranslation10setArticleERK11KEduVocText@Base 4:4.6.2
 _ZN18KEduVocTranslation10setCommentERK7QString@Base 4:4.6.2
 _ZN18KEduVocTranslation10setExampleERK7QString@Base 4:4.6.2
 _ZN18KEduVocTranslation11conjugationERK7QString@Base 4:4.6.2
 _ZN18KEduVocTranslation11setImageUrlERK4KUrl@Base 4:4.6.2
 _ZN18KEduVocTranslation11setSoundUrlERK4KUrl@Base 4:4.6.2
 _ZN18KEduVocTranslation11setWordTypeEP15KEduVocWordType@Base 4:4.6.2
 _ZN18KEduVocTranslation13removeAntonymEPS_@Base 4:4.6.2
 _ZN18KEduVocTranslation13removeSynonymEPS_@Base 4:4.6.2
 _ZN18KEduVocTranslation13setDeclensionEP17KEduVocDeclension@Base 4:4.6.2
 _ZN18KEduVocTranslation13setLeitnerBoxEP17KEduVocLeitnerBox@Base 4:4.6.2
 _ZN18KEduVocTranslation13setParaphraseERK7QString@Base 4:4.6.2
 _ZN18KEduVocTranslation14addFalseFriendEPS_@Base 4:4.6.2
 _ZN18KEduVocTranslation14multipleChoiceEv@Base 4:4.6.2
 _ZN18KEduVocTranslation14setComparativeERK7QString@Base 4:4.6.2
 _ZN18KEduVocTranslation14setConjugationERK7QStringRK18KEduVocConjugation@Base 4:4.6.2
 _ZN18KEduVocTranslation14setSuperlativeERK7QString@Base 4:4.6.2
 _ZN18KEduVocTranslation15setConjugationsERK4QMapI7QString18KEduVocConjugationE@Base 4:4.6.2
 _ZN18KEduVocTranslation16setPronunciationERK7QString@Base 4:4.6.2
 _ZN18KEduVocTranslation17removeFalseFriendEPS_@Base 4:4.6.2
 _ZN18KEduVocTranslation18setComparativeFormERK11KEduVocText@Base 4:4.6.2
 _ZN18KEduVocTranslation18setSuperlativeFormERK11KEduVocText@Base 4:4.6.2
 _ZN18KEduVocTranslation25KEduVocTranslationPrivateC1EP17KEduVocExpression@Base 4:4.6.2
 _ZN18KEduVocTranslation25KEduVocTranslationPrivateC2EP17KEduVocExpression@Base 4:4.6.2
 _ZN18KEduVocTranslation25KEduVocTranslationPrivateD1Ev@Base 4:4.6.2
 _ZN18KEduVocTranslation25KEduVocTranslationPrivateD2Ev@Base 4:4.6.2
 _ZN18KEduVocTranslation5entryEv@Base 4:4.6.2
 _ZN18KEduVocTranslation8imageUrlEv@Base 4:4.6.2
 _ZN18KEduVocTranslation8setEntryEP17KEduVocExpression@Base 4:4.6.2
 _ZN18KEduVocTranslation8soundUrlEv@Base 4:4.6.2
 _ZN18KEduVocTranslation8toKVTML2ER11QDomElement@Base 4:4.6.2
 _ZN18KEduVocTranslationC1EP17KEduVocExpression@Base 4:4.6.2
 _ZN18KEduVocTranslationC1EP17KEduVocExpressionRK7QString@Base 4:4.6.2
 _ZN18KEduVocTranslationC1ERKS_@Base 4:4.6.2
 _ZN18KEduVocTranslationC2EP17KEduVocExpression@Base 4:4.6.2
 _ZN18KEduVocTranslationC2EP17KEduVocExpressionRK7QString@Base 4:4.6.2
 _ZN18KEduVocTranslationC2ERKS_@Base 4:4.6.2
 _ZN18KEduVocTranslationD1Ev@Base 4:4.6.2
 _ZN18KEduVocTranslationD2Ev@Base 4:4.6.2
 _ZN18KEduVocTranslationaSERKS_@Base 4:4.6.2
 _ZN22KEduVocPersonalPronoun13setDualExistsEb@Base 4:4.6.2
 _ZN22KEduVocPersonalPronoun16setNeutralExistsEb@Base 4:4.6.2
 _ZN22KEduVocPersonalPronoun18setPersonalPronounERK7QString6QFlagsIN15KEduVocWordFlag5FlagsEE@Base 4:4.6.2
 _ZN22KEduVocPersonalPronoun22setMaleFemaleDifferentEb@Base 4:4.6.2
 _ZN22KEduVocPersonalPronoun7PrivateC1Ev@Base 4:4.6.2
 _ZN22KEduVocPersonalPronoun7PrivateC2Ev@Base 4:4.6.2
 _ZN22KEduVocPersonalPronounC1ERKS_@Base 4:4.6.2
 _ZN22KEduVocPersonalPronounC1Ev@Base 4:4.6.2
 _ZN22KEduVocPersonalPronounC2ERKS_@Base 4:4.6.2
 _ZN22KEduVocPersonalPronounC2Ev@Base 4:4.6.2
 _ZN22KEduVocPersonalPronounD1Ev@Base 4:4.6.2
 _ZN22KEduVocPersonalPronounD2Ev@Base 4:4.6.2
 _ZN22KEduVocPersonalPronounaSERKS_@Base 4:4.6.2
 _ZNK11KEduVocText12practiceDateEv@Base 4:4.6.2
 _ZNK11KEduVocText13practiceCountEv@Base 4:4.6.2
 _ZNK11KEduVocText4textEv@Base 4:4.6.2
 _ZNK11KEduVocText5gradeEv@Base 4:4.6.2
 _ZNK11KEduVocText8badCountEv@Base 4:4.6.2
 _ZNK11KEduVocTexteqERKS_@Base 4:4.6.2
 _ZNK14KEduVocArticle9isArticleERK7QString@Base 4:4.6.2
 _ZNK15KEduVocDocument10identifierEi@Base 4:4.6.2
 _ZNK15KEduVocDocument10isModifiedEv@Base 4:4.6.2
 _ZNK15KEduVocDocument10metaObjectEv@Base 4:4.6.2
 _ZNK15KEduVocDocument12csvDelimiterEv@Base 4:4.6.2
 _ZNK15KEduVocDocument13authorContactEv@Base 4:4.6.2
 _ZNK15KEduVocDocument15documentCommentEv@Base 4:4.6.2
 _ZNK15KEduVocDocument15identifierCountEv@Base 4:4.6.2
 _ZNK15KEduVocDocument15queryIdentifierER7QStringS1_@Base 4:4.6.2
 _ZNK15KEduVocDocument17indexOfIdentifierERK7QString@Base 4:4.6.2
 _ZNK15KEduVocDocument3urlEv@Base 4:4.6.2
 _ZNK15KEduVocDocument5titleEv@Base 4:4.6.2
 _ZNK15KEduVocDocument6authorEv@Base 4:4.6.2
 _ZNK15KEduVocDocument7licenseEv@Base 4:4.6.2
 _ZNK15KEduVocDocument7versionEv@Base 4:4.6.2
 _ZNK15KEduVocDocument8categoryEv@Base 4:4.6.2
 _ZNK15KEduVocDocument9generatorEv@Base 4:4.6.2
 _ZNK15KEduVocWordType8wordTypeEv@Base 4:4.6.2
 _ZNK16KEduVocContainer19childContainerCountEv@Base 4:4.6.2
 _ZNK16KEduVocContainer3rowEv@Base 4:4.6.2
 _ZNK17KEduVocExpression11translationEi@Base 4:4.6.2
 _ZNK17KEduVocExpression18translationIndicesEv@Base 4:4.6.2
 _ZNK17KEduVocExpression24KEduVocExpressionPrivateeqERKS0_@Base 4:4.6.2
 _ZNK17KEduVocExpression6lessonEv@Base 4:4.6.2
 _ZNK17KEduVocExpression8isActiveEv@Base 4:4.6.2
 _ZNK17KEduVocExpressioneqERKS_@Base 4:4.6.2
 _ZNK17KEduVocIdentifier16personalPronounsEv@Base 4:4.6.2
 _ZNK17KEduVocIdentifier4nameEv@Base 4:4.6.2
 _ZNK17KEduVocIdentifier5tenseEi@Base 4:4.6.2
 _ZNK17KEduVocIdentifier6localeEv@Base 4:4.6.2
 _ZNK17KEduVocIdentifier7articleEv@Base 4:4.6.2
 _ZNK17KEduVocIdentifier9tenseListEv@Base 4:4.6.2
 _ZNK18KEduVocConjugation11conjugationE6QFlagsIN15KEduVocWordFlag5FlagsEE@Base 4:4.6.2
 _ZNK18KEduVocConjugationeqERKS_@Base 4:4.6.2
 _ZNK18KEduVocTranslation10leitnerBoxEv@Base 4:4.6.2
 _ZNK18KEduVocTranslation10paraphraseEv@Base 4:4.6.2
 _ZNK18KEduVocTranslation11comparativeEv@Base 4:4.6.2
 _ZNK18KEduVocTranslation11superlativeEv@Base 4:4.6.2
 _ZNK18KEduVocTranslation12conjugationsEv@Base 4:4.6.2
 _ZNK18KEduVocTranslation12falseFriendsEv@Base 4:4.6.2
 _ZNK18KEduVocTranslation13pronunciationEv@Base 4:4.6.2
 _ZNK18KEduVocTranslation15comparativeFormEv@Base 4:4.6.2
 _ZNK18KEduVocTranslation15superlativeFormEv@Base 4:4.6.2
 _ZNK18KEduVocTranslation17conjugationTensesEv@Base 4:4.6.2
 _ZNK18KEduVocTranslation7articleEv@Base 4:4.6.2
 _ZNK18KEduVocTranslation7commentEv@Base 4:4.6.2
 _ZNK18KEduVocTranslation7exampleEv@Base 4:4.6.2
 _ZNK18KEduVocTranslation8antonymsEv@Base 4:4.6.2
 _ZNK18KEduVocTranslation8synonymsEv@Base 4:4.6.2
 _ZNK18KEduVocTranslation8wordTypeEv@Base 4:4.6.2
 _ZNK18KEduVocTranslationeqERKS_@Base 4:4.6.2
 _ZNK22KEduVocPersonalPronoun10dualExistsEv@Base 4:4.6.2
 _ZNK22KEduVocPersonalPronoun13neutralExistsEv@Base 4:4.6.2
 _ZNK22KEduVocPersonalPronoun15personalPronounE6QFlagsIN15KEduVocWordFlag5FlagsEE@Base 4:4.6.2
 _ZNK22KEduVocPersonalPronoun19maleFemaleDifferentEv@Base 4:4.6.2
 _ZNK22KEduVocPersonalPronouneqERKS_@Base 4:4.6.2
 _ZTI13KEduVocLesson@Base 4:4.6.2
 _ZTI15KEduVocDocument@Base 4:4.6.2
 _ZTI15KEduVocWordType@Base 4:4.6.2
 _ZTI16KEduVocContainer@Base 4:4.6.2
 _ZTI17KEduVocLeitnerBox@Base 4:4.6.2
 _ZTS13KEduVocLesson@Base 4:4.6.2
 _ZTS15KEduVocDocument@Base 4:4.6.2
 _ZTS15KEduVocWordType@Base 4:4.6.2
 _ZTS16KEduVocContainer@Base 4:4.6.2
 _ZTS17KEduVocLeitnerBox@Base 4:4.6.2
 _ZTV13KEduVocLesson@Base 4:4.6.2
 _ZTV15KEduVocDocument@Base 4:4.6.2
 _ZTV15KEduVocWordType@Base 4:4.6.2
 _ZTV16KEduVocContainer@Base 4:4.6.2
 _ZTV17KEduVocLeitnerBox@Base 4:4.6.2
