# SymbolsHelper-Confirmed: 4:4.6.2 amd64
libscience.so.4 libscience4 #MINVER#
 _ZN13IsotopeParser10charactersERK7QString@Base 4:4.6.2
 _ZN13IsotopeParser10endElementERK7QStringS2_S2_@Base 4:4.6.2
 _ZN13IsotopeParser11getIsotopesEv@Base 4:4.6.2
 _ZN13IsotopeParser12startElementERK7QStringS2_S2_RK14QXmlAttributes@Base 4:4.6.2
 _ZN13IsotopeParserC1Ev@Base 4:4.6.2
 _ZN13IsotopeParserC2Ev@Base 4:4.6.2
 _ZN13IsotopeParserD0Ev@Base 4:4.6.2
 _ZN13IsotopeParserD1Ev@Base 4:4.6.2
 _ZN13IsotopeParserD2Ev@Base 4:4.6.2
 _ZN14MoleculeParser10expandTermERK7QString@Base 4:4.6.2
 _ZN14MoleculeParser12getNextTokenEv@Base 4:4.6.2
 _ZN14MoleculeParser13expandFormulaERK7QString@Base 4:4.6.2
 _ZN14MoleculeParser13lookupElementERK7QString@Base 4:4.6.2
 _ZN14MoleculeParser16parseSubmoleculeEPdP15ElementCountMap@Base 4:4.6.2
 _ZN14MoleculeParser6weightERK7QStringPdP15ElementCountMap@Base 4:4.6.2
 _ZN14MoleculeParser9aliasListEv@Base 4:4.6.2
 _ZN14MoleculeParser9parseTermEPdP15ElementCountMap@Base 4:4.6.2
 _ZN14MoleculeParserC1ERK5QListIP7ElementE@Base 4:4.6.2
 _ZN14MoleculeParserC1ERK7QString@Base 4:4.6.2
 _ZN14MoleculeParserC2ERK5QListIP7ElementE@Base 4:4.6.2
 _ZN14MoleculeParserC2ERK7QString@Base 4:4.6.2
 _ZN14MoleculeParserD0Ev@Base 4:4.6.2
 _ZN14MoleculeParserD1Ev@Base 4:4.6.2
 _ZN14MoleculeParserD2Ev@Base 4:4.6.2
 _ZN14SpectrumParser10charactersERK7QString@Base 4:4.6.2
 _ZN14SpectrumParser10endElementERK7QStringS2_S2_@Base 4:4.6.2
 _ZN14SpectrumParser12getSpectrumsEv@Base 4:4.6.2
 _ZN14SpectrumParser12startElementERK7QStringS2_S2_RK14QXmlAttributes@Base 4:4.6.2
 _ZN14SpectrumParserC1Ev@Base 4:4.6.2
 _ZN14SpectrumParserC2Ev@Base 4:4.6.2
 _ZN14SpectrumParserD0Ev@Base 4:4.6.2
 _ZN14SpectrumParserD1Ev@Base 4:4.6.2
 _ZN14SpectrumParserD2Ev@Base 4:4.6.2
 _ZN15ElementCountMap3addEP7Elementi@Base 4:4.6.2
 _ZN15ElementCountMap3addERS_@Base 4:4.6.2
 _ZN15ElementCountMap6searchEP7Element@Base 4:4.6.2
 _ZN15ElementCountMap8elementsEv@Base 4:4.6.2
 _ZN15ElementCountMap8multiplyEi@Base 4:4.6.2
 _ZN15ElementCountMapC1Ev@Base 4:4.6.2
 _ZN15ElementCountMapC2Ev@Base 4:4.6.2
 _ZN15ElementCountMapD1Ev@Base 4:4.6.2
 _ZN15ElementCountMapD2Ev@Base 4:4.6.2
 _ZN16ElementSaxParser10charactersERK7QString@Base 4:4.6.2
 _ZN16ElementSaxParser10endElementERK7QStringS2_S2_@Base 4:4.6.2
 _ZN16ElementSaxParser11getElementsEv@Base 4:4.6.2
 _ZN16ElementSaxParser12startElementERK7QStringS2_S2_RK14QXmlAttributes@Base 4:4.6.2
 _ZN16ElementSaxParserC1Ev@Base 4:4.6.2
 _ZN16ElementSaxParserC2Ev@Base 4:4.6.2
 _ZN16ElementSaxParserD0Ev@Base 4:4.6.2
 _ZN16ElementSaxParserD1Ev@Base 4:4.6.2
 _ZN16ElementSaxParserD2Ev@Base 4:4.6.2
 _ZN18ChemicalDataObject13setErrorValueERK8QVariant@Base 4:4.6.2
 _ZN18ChemicalDataObject4unitERK7QString@Base 4:4.6.2
 _ZN18ChemicalDataObject7setDataERK8QVariant@Base 4:4.6.2
 _ZN18ChemicalDataObject7setTypeENS_11BlueObeliskE@Base 4:4.6.2
 _ZN18ChemicalDataObject7setTypeEi@Base 4:4.6.2
 _ZN18ChemicalDataObject7setUnitENS_15BlueObeliskUnitE@Base 4:4.6.2
 _ZN18ChemicalDataObjectC1ERK8QVariantNS_11BlueObeliskES2_@Base 4:4.6.2
 _ZN18ChemicalDataObjectC1ERKS_@Base 4:4.6.2
 _ZN18ChemicalDataObjectC1Ev@Base 4:4.6.2
 _ZN18ChemicalDataObjectC2ERK8QVariantNS_11BlueObeliskES2_@Base 4:4.6.2
 _ZN18ChemicalDataObjectC2ERKS_@Base 4:4.6.2
 _ZN18ChemicalDataObjectC2Ev@Base 4:4.6.2
 _ZN18ChemicalDataObjectD1Ev@Base 4:4.6.2
 _ZN18ChemicalDataObjectD2Ev@Base 4:4.6.2
 _ZN18ChemicalDataObjectaSERKS_@Base 4:4.6.2
 _ZN6Parser11getNextCharEv@Base 4:4.6.2
 _ZN6Parser12getNextTokenEv@Base 4:4.6.2
 _ZN6Parser14skipWhitespaceEv@Base 4:4.6.2
 _ZN6Parser16parseSimpleFloatEPd@Base 4:4.6.2
 _ZN6Parser5startERK7QString@Base 4:4.6.2
 _ZN6Parser8parseIntEPi@Base 4:4.6.2
 _ZN6ParserC1ERK7QString@Base 4:4.6.2
 _ZN6ParserC1Ev@Base 4:4.6.2
 _ZN6ParserC2ERK7QString@Base 4:4.6.2
 _ZN6ParserC2Ev@Base 4:4.6.2
 _ZN6ParserD0Ev@Base 4:4.6.2
 _ZN6ParserD1Ev@Base 4:4.6.2
 _ZN6ParserD2Ev@Base 4:4.6.2
 _ZN7Element7addDataERK18ChemicalDataObject@Base 4:4.6.2
 _ZN7Element7addDataERK8QVariantN18ChemicalDataObject11BlueObeliskE@Base 4:4.6.2
 _ZN7ElementC1Ev@Base 4:4.6.2
 _ZN7ElementC2Ev@Base 4:4.6.2
 _ZN7ElementD0Ev@Base 4:4.6.2
 _ZN7ElementD1Ev@Base 4:4.6.2
 _ZN7ElementD2Ev@Base 4:4.6.2
 _ZN7Isotope11setNucleonsEi@Base 4:4.6.2
 _ZN7Isotope18nucleonsAfterDecayENS_5DecayE@Base 4:4.6.2
 _ZN7Isotope7addDataE18ChemicalDataObject@Base 4:4.6.2
 _ZN7IsotopeC1Ev@Base 4:4.6.2
 _ZN7IsotopeC2Ev@Base 4:4.6.2
 _ZN7IsotopeD1Ev@Base 4:4.6.2
 _ZN7IsotopeD2Ev@Base 4:4.6.2
 _ZN8Spectrum11wavelengthsEdd@Base 4:4.6.2
 _ZN8Spectrum17adjustIntensitiesEv@Base 4:4.6.2
 _ZN8Spectrum18adjustToWavelengthEdd@Base 4:4.6.2
 _ZN8Spectrum7maxPeakEv@Base 4:4.6.2
 _ZN8Spectrum7minPeakEv@Base 4:4.6.2
 _ZN8SpectrumC1Ev@Base 4:4.6.2
 _ZN8SpectrumC2Ev@Base 4:4.6.2
 _ZN8SpectrumD1Ev@Base 4:4.6.2
 _ZN8SpectrumD2Ev@Base 4:4.6.2
 _ZN8TempUnit12rangeForUnitENS_4UnitE@Base 4:4.6.2
 _ZN8TempUnit12rangeForUnitEi@Base 4:4.6.2
 _ZN8TempUnit14unitListSymbolEi@Base 4:4.6.2
 _ZN8TempUnit15convertToKelvinEdNS_4UnitE@Base 4:4.6.2
 _ZN8TempUnit15unitListSymbolsEv@Base 4:4.6.2
 _ZN8TempUnit7convertEdNS_4UnitES0_@Base 4:4.6.2
 _ZN8TempUnit7convertEdii@Base 4:4.6.2
 _ZN9pseTables12getTabletypeE7QString@Base 4:4.6.2
 _ZN9pseTables12getTabletypeEi@Base 4:4.6.2
 _ZN9pseTables8instanceEv@Base 4:4.6.2
 _ZN9pseTablesC1Ev@Base 4:4.6.2
 _ZN9pseTablesC2Ev@Base 4:4.6.2
 _ZN9pseTablesD1Ev@Base 4:4.6.2
 _ZN9pseTablesD2Ev@Base 4:4.6.2
 _ZNK18ChemicalDataObject10errorValueEv@Base 4:4.6.2
 _ZNK18ChemicalDataObject12unitAsStringEv@Base 4:4.6.2
 _ZNK18ChemicalDataObject13valueAsStringEv@Base 4:4.6.2
 _ZNK18ChemicalDataObject4typeEv@Base 4:4.6.2
 _ZNK18ChemicalDataObject4unitEv@Base 4:4.6.2
 _ZNK18ChemicalDataObject5valueEv@Base 4:4.6.2
 _ZNK18ChemicalDataObject7dictRefEv@Base 4:4.6.2
 _ZNK18ChemicalDataObjecteqERK7QString@Base 4:4.6.2
 _ZNK18ChemicalDataObjecteqERKS_@Base 4:4.6.2
 _ZNK18ChemicalDataObjecteqEb@Base 4:4.6.2
 _ZNK18ChemicalDataObjecteqEd@Base 4:4.6.2
 _ZNK18ChemicalDataObjecteqEi@Base 4:4.6.2
 _ZNK18ChemicalDataObjectneERKS_@Base 4:4.6.2
 _ZNK7Element12dataAsStringEN18ChemicalDataObject11BlueObeliskE@Base 4:4.6.2
 _ZNK7Element13dataAsVariantEN18ChemicalDataObject11BlueObeliskE@Base 4:4.6.2
 _ZNK7Isotope10alphadecayEv@Base 4:4.6.2
 _ZNK7Isotope11errorMarginEv@Base 4:4.6.2
 _ZNK7Isotope12eclikelinessEv@Base 4:4.6.2
 _ZNK7Isotope12halflifeUnitEv@Base 4:4.6.2
 _ZNK7Isotope13betaplusdecayEv@Base 4:4.6.2
 _ZNK7Isotope14betaminusdecayEv@Base 4:4.6.2
 _ZNK7Isotope15alphalikelinessEv@Base 4:4.6.2
 _ZNK7Isotope18betapluslikelinessEv@Base 4:4.6.2
 _ZNK7Isotope19betaminuslikelinessEv@Base 4:4.6.2
 _ZNK7Isotope19parentElementNumberEv@Base 4:4.6.2
 _ZNK7Isotope19parentElementSymbolEv@Base 4:4.6.2
 _ZNK7Isotope4massEv@Base 4:4.6.2
 _ZNK7Isotope4spinEv@Base 4:4.6.2
 _ZNK7Isotope7ecdecayEv@Base 4:4.6.2
 _ZNK7Isotope8halflifeEv@Base 4:4.6.2
 _ZNK7Isotope8nucleonsEv@Base 4:4.6.2
 _ZNK7Isotope9abundanceEv@Base 4:4.6.2
 _ZNK7Isotope9magmomentEv@Base 4:4.6.2
 _ZNK8Spectrum19parentElementNumberEv@Base 4:4.6.2
 _ZNK9pseTables6tablesEv@Base 4:4.6.2
 _ZTI13IsotopeParser@Base 4:4.6.2
 _ZTI14MoleculeParser@Base 4:4.6.2
 _ZTI14SpectrumParser@Base 4:4.6.2
 _ZTI16ElementSaxParser@Base 4:4.6.2
 _ZTI6Parser@Base 4:4.6.2
 _ZTI7Element@Base 4:4.6.2
 _ZTS13IsotopeParser@Base 4:4.6.2
 _ZTS14MoleculeParser@Base 4:4.6.2
 _ZTS14SpectrumParser@Base 4:4.6.2
 _ZTS16ElementSaxParser@Base 4:4.6.2
 _ZTS6Parser@Base 4:4.6.2
 _ZTS7Element@Base 4:4.6.2
 _ZTV13IsotopeParser@Base 4:4.6.2
 _ZTV14MoleculeParser@Base 4:4.6.2
 _ZTV14SpectrumParser@Base 4:4.6.2
 _ZTV16ElementSaxParser@Base 4:4.6.2
 _ZTV6Parser@Base 4:4.6.2
 _ZTV7Element@Base 4:4.6.2
 (c++)"non-virtual thunk to ElementSaxParser::~ElementSaxParser()@Base" 4:4.6.2
 (c++)"non-virtual thunk to IsotopeParser::~IsotopeParser()@Base" 4:4.6.2
 (c++)"non-virtual thunk to SpectrumParser::~SpectrumParser()@Base" 4:4.6.2
